(lp1
(dp2
S'cmd_num'
p3
S'1175'
p4
sS'price'
p5
F0.5
sS'sell_currency'
p6
S'litecoin'
p7
sS'sell_amount'
p8
F1.0000000000000001e-05
sS'bid_id'
p9
S'ca864e9796682bb1fd7d88767ab6be27bb8ebcf29f36f9ab1c99330a04c66369'
p10
sS'buy_amount'
p11
F2.0000000000000002e-05
sS'buy_currency'
p12
S'bitcoin'
p13
sS'owner'
p14
S'04337ae95e50f7a0e73229c2e65193f50d46506fb074b185fdae6bf1f2b47c6489b1ed8455838eb9cc14ecbfc8902f63376a672daff64da145f2b40d51ebaab2ca'
p15
sa(dp16
S'cmd_num'
p17
S'1214'
p18
sS'price'
p19
F0.44999999999999996
sS'sell_currency'
p20
S'litecoin'
p21
sS'sell_amount'
p22
F9.0000000000000002e-06
sS'bid_id'
p23
S'b6950aa73b5c384466e8e115cca83711d330762588c95f89eb7a6e803e4b315a'
p24
sS'buy_amount'
p25
F2.0000000000000002e-05
sS'buy_currency'
p26
S'bitcoin'
p27
sS'owner'
p28
S'04337ae95e50f7a0e73229c2e65193f50d46506fb074b185fdae6bf1f2b47c6489b1ed8455838eb9cc14ecbfc8902f63376a672daff64da145f2b40d51ebaab2ca'
p29
sa.